target datalayout = "e-m:e-p270:32:32-p271:32:32-p272:64:64-i64:64-i128:128-f80:128-n8:16:32:64-S128"
target triple = "x86_64-pc-linux-gnu"

@.str.31 = private unnamed_addr constant [22 x i8] c"%s: could not open %s\00", align 1
@__func__.rmdir_recursive = private unnamed_addr constant [16 x i8] c"rmdir_recursive\00", align 1
@.str.32 = private unnamed_addr constant [32 x i8] c"%s: rmdir() failed for `%s`: %m\00", align 1
@.str.33 = private unnamed_addr constant [41 x i8] c"%s: removed now-empty top directory `%s`\00", align 1
@.str.34 = private unnamed_addr constant [52 x i8] c"%s: could not completely remove `%s`, %d files left\00", align 1

; Function Attrs: nounwind uwtable
define dso_local i32 @rmdir_recursive(ptr noundef %0, i1 noundef zeroext %1) #0 {
  %3 = alloca i32, align 4
  %4 = alloca ptr, align 8
  %5 = alloca i8, align 1
  %6 = alloca i32, align 4
  %7 = alloca i32, align 4
  %8 = alloca i32, align 4
  store ptr %0, ptr %4, align 8
  %9 = zext i1 %1 to i8
  store i8 %9, ptr %5, align 1
  call void @llvm.lifetime.start.p0(i64 4, ptr %6) #10
  store i32 0, ptr %6, align 4
  call void @llvm.lifetime.start.p0(i64 4, ptr %7) #10
  %10 = load ptr, ptr %4, align 8
  %11 = call i32 (ptr, i32, ...) @open(ptr noundef %10, i32 noundef 196608)
  store i32 %11, ptr %7, align 4
  %12 = icmp slt i32 %11, 0
  br i1 %12, label %13, label %16

13:                                               ; preds = %2
  %14 = load ptr, ptr %4, align 8
  %15 = call i32 (ptr, ...) @error(ptr noundef @.str.31, ptr noundef @__func__.rmdir_recursive, ptr noundef %14)
  store i32 1, ptr %3, align 4
  store i32 1, ptr %8, align 4
  br label %61

16:                                               ; preds = %2
  %17 = load i32, ptr %7, align 4
  %18 = call i32 @_rmdir_recursive(i32 noundef %17)
  store i32 %18, ptr %6, align 4
  %19 = load i8, ptr %5, align 1, !range !11, !noundef !12
  %20 = trunc i8 %19 to i1
  br i1 %20, label %21, label %52

21:                                               ; preds = %16
  %22 = load ptr, ptr %4, align 8
  %23 = call i32 @rmdir(ptr noundef %22) #10
  %24 = icmp slt i32 %23, 0
  br i1 %24, label %25, label %39

25:                                               ; preds = %21
  br label %26

26:                                               ; preds = %25
  br label %27

27:                                               ; preds = %26
  %28 = call i32 @get_log_level()
  %29 = icmp sge i32 %28, 5
  br i1 %29, label %30, label %32

30:                                               ; preds = %27
  %31 = load ptr, ptr %4, align 8
  call void (i32, ptr, ...) @log_var(i32 noundef 5, ptr noundef @.str.32, ptr noundef @__func__.rmdir_recursive, ptr noundef %31)
  br label %32

32:                                               ; preds = %30, %27
  br label %33

33:                                               ; preds = %32
  br label %34

34:                                               ; preds = %33
  br label %35

35:                                               ; preds = %34
  br label %36

36:                                               ; preds = %35
  %37 = load i32, ptr %6, align 4
  %38 = add nsw i32 %37, 1
  store i32 %38, ptr %6, align 4
  br label %51

39:                                               ; preds = %21
  br label %40

40:                                               ; preds = %39
  br label %41

41:                                               ; preds = %40
  %42 = call i32 @get_log_level()
  %43 = icmp sge i32 %42, 5
  br i1 %43, label %44, label %46

44:                                               ; preds = %41
  %45 = load ptr, ptr %4, align 8
  call void (i32, ptr, ...) @log_var(i32 noundef 5, ptr noundef @.str.33, ptr noundef @__func__.rmdir_recursive, ptr noundef %45)
  br label %46

46:                                               ; preds = %44, %41
  br label %47

47:                                               ; preds = %46
  br label %48

48:                                               ; preds = %47
  br label %49

49:                                               ; preds = %48
  br label %50

50:                                               ; preds = %49
  br label %51

51:                                               ; preds = %50, %36
  br label %52

52:                                               ; preds = %51, %16
  %53 = load i32, ptr %6, align 4
  %54 = icmp ne i32 %53, 0
  br i1 %54, label %55, label %59

55:                                               ; preds = %52
  %56 = load ptr, ptr %4, align 8
  %57 = load i32, ptr %6, align 4
  %58 = call i32 (ptr, ...) @error(ptr noundef @.str.34, ptr noundef @__func__.rmdir_recursive, ptr noundef %56, i32 noundef %57)
  br label %59

59:                                               ; preds = %55, %52
  %60 = load i32, ptr %6, align 4
  store i32 %60, ptr %3, align 4
  store i32 1, ptr %8, align 4
  br label %61

61:                                               ; preds = %59, %13
  call void @llvm.lifetime.end.p0(i64 4, ptr %7) #10
  call void @llvm.lifetime.end.p0(i64 4, ptr %6) #10
  %62 = load i32, ptr %3, align 4
  ret i32 %62
}