; Function Attrs: nounwind uwtable
define dso_local i32 @rmdir_recursive(ptr noundef %0, i1 noundef zeroext %1) #0 {
  %3 = tail call i32 (ptr, i32, ...) @open(ptr noundef %0, i32 noundef 196608) #10
  %4 = icmp slt i32 %3, 0
  br i1 %4, label %5, label %7

5:                                                ; preds = %2
  %6 = tail call i32 (ptr, ...) @error(ptr noundef nonnull @.str.31, ptr noundef nonnull @__func__.rmdir_recursive, ptr noundef %0) #10
  br label %23

7:                                                ; preds = %2
  %8 = tail call fastcc i32 @_rmdir_recursive(i32 noundef %3)
  br i1 %1, label %9, label %20

9:                                                ; preds = %7
  %10 = tail call i32 @rmdir(ptr noundef %0) #10
  %11 = icmp slt i32 %10, 0
  %12 = tail call i32 @get_log_level() #10
  %13 = icmp sgt i32 %12, 4
  br i1 %11, label %14, label %18

14:                                               ; preds = %9
  br i1 %13, label %15, label %16

15:                                               ; preds = %14
  tail call void (i32, ptr, ...) @log_var(i32 noundef 5, ptr noundef nonnull @.str.32, ptr noundef nonnull @__func__.rmdir_recursive, ptr noundef %0) #10
  br label %16

16:                                               ; preds = %15, %14
  %17 = add nsw i32 %8, 1
  br label %20

18:                                               ; preds = %9
  br i1 %13, label %19, label %20

19:                                               ; preds = %18
  tail call void (i32, ptr, ...) @log_var(i32 noundef 5, ptr noundef nonnull @.str.33, ptr noundef nonnull @__func__.rmdir_recursive, ptr noundef %0) #10
  br label %20

20:                                               ; preds = %16, %19, %18, %7
  %.012 = phi i32 [ %17, %16 ], [ %8, %19 ], [ %8, %18 ], [ %8, %7 ]
  %.not = icmp eq i32 %.012, 0
  br i1 %.not, label %23, label %21

21:                                               ; preds = %20
  %22 = tail call i32 (ptr, ...) @error(ptr noundef nonnull @.str.34, ptr noundef nonnull @__func__.rmdir_recursive, ptr noundef %0, i32 noundef %.012) #10
  br label %23

23:                                               ; preds = %20, %21, %5
  %.0 = phi i32 [ 1, %5 ], [ %.012, %21 ], [ 0, %20 ]
  ret i32 %.0
}